; Function Attrs: inlinehint mustprogress nofree norecurse nounwind willreturn uwtable
define internal noundef zeroext i1 @"_ZZN12V3ThreadPool13workerJobLoopEvENK3$_0clEv"(ptr noundef nonnull readonly align 8 captures(none) dereferenceable(8) %0) #19 align 2 {
  %2 = load ptr, ptr %0, align 8, !tbaa !181
  %3 = getelementptr inbounds nuw i8, ptr %2, i64 24
  %4 = tail call ptr @llvm.ptr.annotation.p0.p0(ptr nonnull %3, ptr nonnull @.str, ptr nonnull @.str.1, i32 37, ptr null)
  %5 = getelementptr inbounds nuw i8, ptr %4, i64 48
  %6 = getelementptr inbounds nuw i8, ptr %4, i64 16
  %7 = load ptr, ptr %5, align 8, !tbaa !76
  %8 = load ptr, ptr %6, align 8, !tbaa !76
  %9 = icmp eq ptr %7, %8
  br i1 %9, label %10, label %14

10:                                               ; preds = %1
  %11 = getelementptr inbounds nuw i8, ptr %2, i64 168
  %12 = load atomic i8, ptr %11 seq_cst, align 1
  %13 = trunc i8 %12 to i1
  br label %14

14:                                               ; preds = %10, %1
  %15 = phi i1 [ true, %1 ], [ %13, %10 ]
  ret i1 %15
}